; Function Attrs: mustprogress uwtable
define dso_local { ptr, i8 } @_ZNK4Luau8DfgScope6lookupENS_6SymbolE(ptr noundef nonnull align 8 dereferenceable(104) %0, ptr %1, ptr %2) local_unnamed_addr #2 align 2 personality ptr @__gxx_personality_v0 {
  %4 = alloca %"struct.Luau::Symbol", align 8
  store ptr %1, ptr %4, align 8
  %5 = getelementptr inbounds nuw i8, ptr %4, i64 8
  store ptr %2, ptr %5, align 8
  br label %6

6:                                                ; preds = %3, %.critedge
  %.017 = phi ptr [ %0, %3 ], [ %9, %.critedge ]
  %7 = getelementptr inbounds nuw i8, ptr %.017, i64 16
  %8 = call noundef ptr @_ZNK4Luau6detail14DenseHashTableINS_6SymbolESt4pairIS2_PKNS_3DefEES3_IKS2_S6_ENS0_16ItemInterfaceMapIS2_S6_EESt4hashIS2_ESt8equal_toIS2_EE4findERS8_(ptr noundef nonnull align 8 dereferenceable(48) %7, ptr noundef nonnull align 8 dereferenceable(16) %4)
  %.not.i = icmp eq ptr %8, null
  br i1 %.not.i, label %.critedge, label %10

.critedge:                                        ; preds = %6
  %9 = load ptr, ptr %.017, align 8, !tbaa !80
  %.not = icmp eq ptr %9, null
  br i1 %.not, label %.loopexit, label %6, !llvm.loop !95

10:                                               ; preds = %6
  %11 = getelementptr inbounds nuw i8, ptr %8, i64 16
  %12 = load ptr, ptr %11, align 8, !tbaa !20
  br label %.loopexit

.loopexit:                                        ; preds = %.critedge, %10
  %.sroa.010.015 = phi ptr [ %12, %10 ], [ undef, %.critedge ]
  %.sroa.2.1 = phi i8 [ 1, %10 ], [ 0, %.critedge ]
  %.fca.0.insert = insertvalue { ptr, i8 } poison, ptr %.sroa.010.015, 0
  %.fca.1.insert = insertvalue { ptr, i8 } %.fca.0.insert, i8 %.sroa.2.1, 1
  ret { ptr, i8 } %.fca.1.insert
}